; Function Attrs: mustprogress null_pointer_is_valid sspstrong uwtable
define void @_ZN13IOGraphDialog30on_graphUat_currentItemChangedERK11QModelIndexS2_(ptr noundef align 8 dereferenceable_or_null(384) %0, ptr noundef readonly align 8 captures(none) dereferenceable(24) %1, ptr noundef readnone align 8 captures(none) dereferenceable(24) %2) local_unnamed_addr #2 align 2 {
  %4 = load i32, ptr %1, align 8
  %5 = icmp sgt i32 %4, -1
  %6 = getelementptr inbounds nuw i8, ptr %1, i64 4
  %7 = load i32, ptr %6, align 4
  %8 = icmp sgt i32 %7, -1
  %or.cond = select i1 %5, i1 %8, i1 false
  %9 = getelementptr inbounds nuw i8, ptr %1, i64 16
  %10 = load ptr, ptr %9, align 8
  %11 = icmp ne ptr %10, null
  %or.cond7 = select i1 %or.cond, i1 %11, i1 false
  %12 = getelementptr inbounds nuw i8, ptr %0, i64 144
  %13 = load ptr, ptr %12, align 8
  %14 = getelementptr inbounds nuw i8, ptr %13, i64 280
  %15 = load ptr, ptr %14, align 8
  br i1 %or.cond7, label %16, label %_ZNK11QModelIndex7isValidEv.exit.thread

16:                                               ; preds = %3
  tail call void @_ZN7QWidget10setEnabledEb(ptr noundef align 8 dereferenceable_or_null(40) %15, i1 noundef zeroext true)
  %17 = load i32, ptr %1, align 8
  %18 = tail call noundef zeroext i1 @_ZNK13IOGraphDialog14graphIsEnabledEi(ptr noundef align 8 dereferenceable_or_null(384) %0, i32 noundef %17)
  br i1 %18, label %19, label %20

19:                                               ; preds = %16
  tail call void @_ZN13IOGraphDialog12getGraphInfoEv(ptr noundef align 8 dereferenceable_or_null(384) %0)
  br label %20

_ZNK11QModelIndex7isValidEv.exit.thread:          ; preds = %3
  tail call void @_ZN7QWidget10setEnabledEb(ptr noundef align 8 dereferenceable_or_null(40) %15, i1 noundef zeroext false)
  br label %20

20:                                               ; preds = %16, %19, %_ZNK11QModelIndex7isValidEv.exit.thread
  ret void
}